; Function Attrs: mustprogress uwtable
define noundef ptr @uprv_decNumberNextPlus_77(ptr noundef returned %0, ptr noundef %1, ptr noundef %2) local_unnamed_addr #3 {
  %4 = alloca %struct.decNumber, align 4
  %5 = alloca %struct.decContext, align 4
  %6 = alloca i32, align 4
  call void @llvm.lifetime.start.p0(i64 12, ptr nonnull %4) #16
  call void @llvm.lifetime.start.p0(i64 28, ptr nonnull %5) #16
  call void @llvm.memcpy.p0.p0.i64(ptr noundef nonnull align 4 dereferenceable(28) %5, ptr noundef nonnull align 4 dereferenceable(28) %2, i64 28, i1 false), !tbaa.struct !61
  call void @llvm.lifetime.start.p0(i64 4, ptr nonnull %6) #16
  store i32 0, ptr %6, align 4, !tbaa !14
  %7 = getelementptr inbounds nuw i8, ptr %1, i64 8
  %8 = load i8, ptr %7, align 4, !tbaa !3
  %9 = icmp ugt i8 %8, -65
  br i1 %9, label %10, label %30

10:                                               ; preds = %3
  %11 = load i32, ptr %2, align 4, !tbaa !27
  store i32 %11, ptr %0, align 4, !tbaa !9
  %12 = getelementptr i8, ptr %0, i64 9
  %13 = icmp sgt i32 %11, 1
  br i1 %13, label %.lr.ph.preheader.i, label %_ZL14decSetMaxValueP9decNumberP10decContext.exit

.lr.ph.preheader.i:                               ; preds = %10
  %14 = add nsw i32 %11, -1
  %15 = zext nneg i32 %14 to i64
  tail call void @llvm.memset.p0.i64(ptr align 1 %12, i8 9, i64 %15, i1 false), !tbaa !10
  %16 = zext nneg i32 %11 to i64
  %17 = getelementptr i8, ptr %0, i64 %16
  %scevgep.i = getelementptr i8, ptr %17, i64 8
  br label %_ZL14decSetMaxValueP9decNumberP10decContext.exit

_ZL14decSetMaxValueP9decNumberP10decContext.exit: ; preds = %10, %.lr.ph.preheader.i
  %.013.lcssa.i = phi ptr [ %12, %10 ], [ %scevgep.i, %.lr.ph.preheader.i ]
  %.0.lcssa.i = phi i32 [ %11, %10 ], [ 1, %.lr.ph.preheader.i ]
  %18 = sext i32 %.0.lcssa.i to i64
  %19 = getelementptr inbounds [10 x i32], ptr @_ZL9DECPOWERS, i64 0, i64 %18
  %20 = load i32, ptr %19, align 4, !tbaa !14
  %21 = trunc i32 %20 to i8
  %22 = add i8 %21, -1
  store i8 %22, ptr %.013.lcssa.i, align 1, !tbaa !10
  %23 = getelementptr inbounds nuw i8, ptr %0, i64 8
  %24 = getelementptr inbounds nuw i8, ptr %2, i64 4
  %25 = load i32, ptr %24, align 4, !tbaa !36
  %26 = load i32, ptr %2, align 4, !tbaa !27
  %27 = add i32 %25, 1
  %28 = sub i32 %27, %26
  %29 = getelementptr inbounds nuw i8, ptr %0, i64 4
  store i32 %28, ptr %29, align 4, !tbaa !8
  store i8 -128, ptr %23, align 4, !tbaa !3
  br label %47

30:                                               ; preds = %3
  %31 = getelementptr inbounds nuw i8, ptr %4, i64 8
  store i8 0, ptr %31, align 4, !tbaa !3
  %32 = getelementptr inbounds nuw i8, ptr %4, i64 4
  store i32 1, ptr %4, align 4, !tbaa !9
  %33 = getelementptr inbounds nuw i8, ptr %4, i64 9
  store i8 1, ptr %33, align 1, !tbaa !10
  store i32 -1000000000, ptr %32, align 4, !tbaa !8
  %34 = getelementptr inbounds nuw i8, ptr %5, i64 12
  store i32 0, ptr %34, align 4, !tbaa !45
  %35 = call fastcc noundef ptr @_ZL8decAddOpP9decNumberPKS_S2_P10decContexthPj(ptr noundef %0, ptr noundef nonnull %1, ptr noundef nonnull %4, ptr noundef nonnull %5, i8 noundef zeroext 0, ptr noundef %6)
  %36 = load i32, ptr %6, align 4, !tbaa !14
  %37 = and i32 %36, 1073741952
  %.not = icmp eq i32 %37, 0
  br i1 %.not, label %47, label %38

38:                                               ; preds = %30
  %39 = and i32 %36, 128
  %.not.i = icmp eq i32 %39, 0
  br i1 %.not.i, label %_ZL9decStatusP9decNumberjP10decContext.exit, label %40

40:                                               ; preds = %38
  %41 = and i32 %36, 1073741824
  %.not6.i = icmp eq i32 %41, 0
  br i1 %.not6.i, label %42, label %_ZL9decStatusP9decNumberjP10decContext.exit

42:                                               ; preds = %40
  %43 = getelementptr inbounds nuw i8, ptr %0, i64 8
  %44 = getelementptr inbounds nuw i8, ptr %0, i64 4
  store i32 0, ptr %44, align 4, !tbaa !8
  store i32 1, ptr %0, align 4, !tbaa !9
  %45 = getelementptr inbounds nuw i8, ptr %0, i64 9
  store i8 0, ptr %45, align 1, !tbaa !10
  store i8 32, ptr %43, align 4, !tbaa !3
  br label %_ZL9decStatusP9decNumberjP10decContext.exit

_ZL9decStatusP9decNumberjP10decContext.exit:      ; preds = %40, %38, %42
  %.0.i = phi i32 [ %37, %42 ], [ %37, %38 ], [ 128, %40 ]
  %46 = call ptr @uprv_decContextSetStatus_77(ptr noundef nonnull %2, i32 noundef %.0.i)
  br label %47

47:                                               ; preds = %30, %_ZL9decStatusP9decNumberjP10decContext.exit, %_ZL14decSetMaxValueP9decNumberP10decContext.exit
  call void @llvm.lifetime.end.p0(i64 4, ptr nonnull %6) #16
  call void @llvm.lifetime.end.p0(i64 28, ptr nonnull %5) #16
  call void @llvm.lifetime.end.p0(i64 12, ptr nonnull %4) #16
  ret ptr %0
}